target datalayout = "e-m:e-p270:32:32-p271:32:32-p272:64:64-i64:64-i128:128-f80:128-n8:16:32:64-S128"
target triple = "x86_64-pc-linux-gnu"

%struct.multi_pack_index = type { ptr, ptr, i64, ptr, ptr, i64, i32, i8, i8, i8, i32, i32, i32, i32, i32, ptr, i64, ptr, i64, ptr, ptr, ptr, ptr, i64, ptr, i64, ptr, i32, i32, ptr, ptr, ptr, [0 x i8] }

@.str.51 = private unnamed_addr constant [52 x i8] c"multi-pack-index OID lookup chunk is the wrong size\00", align 1
@.str.63 = private unnamed_addr constant [1 x i8] zeroinitializer, align 1
@git_gettext_enabled = external global i32, align 4
@.str.66 = private unnamed_addr constant [27 x i8] c"size_t overflow: %lu * %lu\00", align 1

; Function Attrs: inlinehint nounwind uwtable
define internal i32 @const_error() #2 {
  ret i32 -1
}

; Function Attrs: inlinehint nounwind uwtable
define internal ptr @_(ptr noundef %0) #2 {
  %2 = alloca ptr, align 8
  %3 = alloca ptr, align 8
  store ptr %0, ptr %3, align 8, !tbaa !9
  %4 = load ptr, ptr %3, align 8, !tbaa !9
  %5 = load i8, ptr %4, align 1, !tbaa !49
  %6 = icmp ne i8 %5, 0
  br i1 %6, label %8, label %7

7:                                                ; preds = %1
  store ptr @.str.63, ptr %2, align 8
  br label %16

8:                                                ; preds = %1
  %9 = load i32, ptr @git_gettext_enabled, align 4, !tbaa !40
  %10 = icmp ne i32 %9, 0
  br i1 %10, label %13, label %11

11:                                               ; preds = %8
  %12 = load ptr, ptr %3, align 8, !tbaa !9
  store ptr %12, ptr %2, align 8
  br label %16

13:                                               ; preds = %8
  %14 = load ptr, ptr %3, align 8, !tbaa !9
  %15 = call ptr @dcgettext(ptr noundef null, ptr noundef %14, i32 noundef 5) #13
  store ptr %15, ptr %2, align 8
  br label %16

16:                                               ; preds = %13, %11, %7
  %17 = load ptr, ptr %2, align 8
  ret ptr %17
}

; Function Attrs: inlinehint nounwind uwtable
define internal i64 @st_mult(i64 noundef %0, i64 noundef %1) #2 {
  %3 = alloca i64, align 8
  %4 = alloca i64, align 8
  store i64 %0, ptr %3, align 8, !tbaa !11
  store i64 %1, ptr %4, align 8, !tbaa !11
  %5 = load i64, ptr %3, align 8, !tbaa !11
  %6 = icmp ne i64 %5, 0
  br i1 %6, label %7, label %15

7:                                                ; preds = %2
  %8 = load i64, ptr %4, align 8, !tbaa !11
  %9 = load i64, ptr %3, align 8, !tbaa !11
  %10 = udiv i64 -1, %9
  %11 = icmp ugt i64 %8, %10
  br i1 %11, label %12, label %15

12:                                               ; preds = %7
  %13 = load i64, ptr %3, align 8, !tbaa !11
  %14 = load i64, ptr %4, align 8, !tbaa !11
  call void (ptr, ...) @die(ptr noundef @.str.66, i64 noundef %13, i64 noundef %14) #14
  unreachable

15:                                               ; preds = %7, %2
  %16 = load i64, ptr %3, align 8, !tbaa !11
  %17 = load i64, ptr %4, align 8, !tbaa !11
  %18 = mul i64 %16, %17
  ret i64 %18
}

; Function Attrs: nounwind uwtable
define internal i32 @midx_read_oid_lookup(ptr noundef %0, i64 noundef %1, ptr noundef %2) #0 {
  %4 = alloca i32, align 4
  %5 = alloca ptr, align 8
  %6 = alloca i64, align 8
  %7 = alloca ptr, align 8
  %8 = alloca ptr, align 8
  %9 = alloca i32, align 4
  store ptr %0, ptr %5, align 8, !tbaa !9
  store i64 %1, ptr %6, align 8, !tbaa !11
  store ptr %2, ptr %7, align 8, !tbaa !43
  call void @llvm.lifetime.start.p0(i64 8, ptr %8) #13
  %10 = load ptr, ptr %7, align 8, !tbaa !43
  store ptr %10, ptr %8, align 8, !tbaa !4
  %11 = load ptr, ptr %5, align 8, !tbaa !9
  %12 = load ptr, ptr %8, align 8, !tbaa !4
  %13 = getelementptr inbounds nuw %struct.multi_pack_index, ptr %12, i32 0, i32 20
  store ptr %11, ptr %13, align 8, !tbaa !9
  %14 = load i64, ptr %6, align 8, !tbaa !11
  %15 = load ptr, ptr %8, align 8, !tbaa !4
  %16 = getelementptr inbounds nuw %struct.multi_pack_index, ptr %15, i32 0, i32 8
  %17 = load i8, ptr %16, align 1, !tbaa !49
  %18 = zext i8 %17 to i64
  %19 = load ptr, ptr %8, align 8, !tbaa !4
  %20 = getelementptr inbounds nuw %struct.multi_pack_index, ptr %19, i32 0, i32 11
  %21 = load i32, ptr %20, align 4, !tbaa !40
  %22 = zext i32 %21 to i64
  %23 = call i64 @st_mult(i64 noundef %18, i64 noundef %22)
  %24 = icmp ne i64 %14, %23
  br i1 %24, label %25, label %29

25:                                               ; preds = %3
  %26 = call ptr @_(ptr noundef @.str.51)
  %27 = call i32 (ptr, ...) @error(ptr noundef %26)
  %28 = call i32 @const_error()
  store i32 1, ptr %4, align 4
  store i32 1, ptr %9, align 4
  br label %30

29:                                               ; preds = %3
  store i32 0, ptr %4, align 4
  store i32 1, ptr %9, align 4
  br label %30

30:                                               ; preds = %29, %25
  call void @llvm.lifetime.end.p0(i64 8, ptr %8) #13
  %31 = load i32, ptr %4, align 4
  ret i32 %31
}