; Function Attrs: nounwind uwtable
define internal range(i32 0, 2) i32 @midx_read_oid_lookup(ptr noundef %0, i64 noundef %1, ptr noundef captures(none) initializes((120, 128)) %2) #1 {
  %4 = getelementptr inbounds nuw i8, ptr %2, i64 120
  store ptr %0, ptr %4, align 8, !tbaa !4
  %5 = getelementptr inbounds nuw i8, ptr %2, i64 53
  %6 = load i8, ptr %5, align 1, !tbaa !43
  %7 = zext i8 %6 to i64
  %8 = getelementptr inbounds nuw i8, ptr %2, i64 60
  %9 = load i32, ptr %8, align 4, !tbaa !41
  %10 = zext i32 %9 to i64
  %11 = mul nuw nsw i64 %10, %7
  %.not = icmp eq i64 %1, %11
  br i1 %.not, label %17, label %12

12:                                               ; preds = %3
  %13 = load i32, ptr @git_gettext_enabled, align 4, !tbaa !41
  %.not4.i = icmp eq i32 %13, 0
  br i1 %.not4.i, label %_.exit, label %14

14:                                               ; preds = %12
  %15 = tail call ptr @dcgettext(ptr noundef null, ptr noundef nonnull @.str.51, i32 noundef 5) #22
  br label %_.exit

_.exit:                                           ; preds = %12, %14
  %.0.i = phi ptr [ %15, %14 ], [ @.str.51, %12 ]
  %16 = tail call i32 (ptr, ...) @error(ptr noundef %.0.i) #22
  br label %17

17:                                               ; preds = %3, %_.exit
  %.0 = phi i32 [ 1, %_.exit ], [ 0, %3 ]
  ret i32 %.0
}